target datalayout = "e-m:e-p270:32:32-p271:32:32-p272:64:64-i64:64-i128:128-f80:128-n8:16:32:64-S128"
target triple = "x86_64-pc-linux-gnu"

%struct.nghttp2_nv = type { ptr, ptr, i64, i64, i8 }

; Function Attrs: nounwind uwtable
define hidden i32 @nghttp2_nv_array_copy(ptr noundef %0, ptr noundef %1, i64 noundef %2, ptr noundef %3) #0 {
  %5 = alloca i32, align 4
  %6 = alloca ptr, align 8
  %7 = alloca ptr, align 8
  %8 = alloca i64, align 8
  %9 = alloca ptr, align 8
  %10 = alloca i64, align 8
  %11 = alloca ptr, align 8
  %12 = alloca i64, align 8
  %13 = alloca ptr, align 8
  %14 = alloca i32, align 4
  store ptr %0, ptr %6, align 8, !tbaa !92
  store ptr %1, ptr %7, align 8, !tbaa !8
  store i64 %2, ptr %8, align 8, !tbaa !18
  store ptr %3, ptr %9, align 8, !tbaa !8
  call void @llvm.lifetime.start.p0(i64 8, ptr %10) #7
  call void @llvm.lifetime.start.p0(i64 8, ptr %11) #7
  store ptr null, ptr %11, align 8, !tbaa !3
  call void @llvm.lifetime.start.p0(i64 8, ptr %12) #7
  store i64 0, ptr %12, align 8, !tbaa !18
  call void @llvm.lifetime.start.p0(i64 8, ptr %13) #7
  %15 = load i64, ptr %8, align 8, !tbaa !18
  %16 = icmp eq i64 %15, 0
  br i1 %16, label %17, label %19

17:                                               ; preds = %4
  %18 = load ptr, ptr %6, align 8, !tbaa !92
  store ptr null, ptr %18, align 8, !tbaa !8
  store i32 0, ptr %5, align 4
  store i32 1, ptr %14, align 4
  br label %243

19:                                               ; preds = %4
  store i64 0, ptr %10, align 8, !tbaa !18
  br label %20

20:                                               ; preds = %61, %19
  %21 = load i64, ptr %10, align 8, !tbaa !18
  %22 = load i64, ptr %8, align 8, !tbaa !18
  %23 = icmp ult i64 %21, %22
  br i1 %23, label %24, label %64

24:                                               ; preds = %20
  %25 = load ptr, ptr %7, align 8, !tbaa !8
  %26 = load i64, ptr %10, align 8, !tbaa !18
  %27 = getelementptr inbounds nuw %struct.nghttp2_nv, ptr %25, i64 %26
  %28 = getelementptr inbounds nuw %struct.nghttp2_nv, ptr %27, i32 0, i32 4
  %29 = load i8, ptr %28, align 8, !tbaa !108
  %30 = zext i8 %29 to i32
  %31 = and i32 %30, 2
  %32 = icmp eq i32 %31, 0
  br i1 %32, label %33, label %42

33:                                               ; preds = %24
  %34 = load ptr, ptr %7, align 8, !tbaa !8
  %35 = load i64, ptr %10, align 8, !tbaa !18
  %36 = getelementptr inbounds nuw %struct.nghttp2_nv, ptr %34, i64 %35
  %37 = getelementptr inbounds nuw %struct.nghttp2_nv, ptr %36, i32 0, i32 2
  %38 = load i64, ptr %37, align 8, !tbaa !103
  %39 = add i64 %38, 1
  %40 = load i64, ptr %12, align 8, !tbaa !18
  %41 = add i64 %40, %39
  store i64 %41, ptr %12, align 8, !tbaa !18
  br label %42

42:                                               ; preds = %33, %24
  %43 = load ptr, ptr %7, align 8, !tbaa !8
  %44 = load i64, ptr %10, align 8, !tbaa !18
  %45 = getelementptr inbounds nuw %struct.nghttp2_nv, ptr %43, i64 %44
  %46 = getelementptr inbounds nuw %struct.nghttp2_nv, ptr %45, i32 0, i32 4
  %47 = load i8, ptr %46, align 8, !tbaa !108
  %48 = zext i8 %47 to i32
  %49 = and i32 %48, 4
  %50 = icmp eq i32 %49, 0
  br i1 %50, label %51, label %60

51:                                               ; preds = %42
  %52 = load ptr, ptr %7, align 8, !tbaa !8
  %53 = load i64, ptr %10, align 8, !tbaa !18
  %54 = getelementptr inbounds nuw %struct.nghttp2_nv, ptr %52, i64 %53
  %55 = getelementptr inbounds nuw %struct.nghttp2_nv, ptr %54, i32 0, i32 3
  %56 = load i64, ptr %55, align 8, !tbaa !105
  %57 = add i64 %56, 1
  %58 = load i64, ptr %12, align 8, !tbaa !18
  %59 = add i64 %58, %57
  store i64 %59, ptr %12, align 8, !tbaa !18
  br label %60

60:                                               ; preds = %51, %42
  br label %61

61:                                               ; preds = %60
  %62 = load i64, ptr %10, align 8, !tbaa !18
  %63 = add i64 %62, 1
  store i64 %63, ptr %10, align 8, !tbaa !18
  br label %20, !llvm.loop !109

64:                                               ; preds = %20
  %65 = load i64, ptr %8, align 8, !tbaa !18
  %66 = mul i64 40, %65
  %67 = load i64, ptr %12, align 8, !tbaa !18
  %68 = add i64 %67, %66
  store i64 %68, ptr %12, align 8, !tbaa !18
  %69 = load ptr, ptr %9, align 8, !tbaa !8
  %70 = load i64, ptr %12, align 8, !tbaa !18
  %71 = call ptr @nghttp2_mem_malloc(ptr noundef %69, i64 noundef %70)
  %72 = load ptr, ptr %6, align 8, !tbaa !92
  store ptr %71, ptr %72, align 8, !tbaa !8
  %73 = load ptr, ptr %6, align 8, !tbaa !92
  %74 = load ptr, ptr %73, align 8, !tbaa !8
  %75 = icmp eq ptr %74, null
  br i1 %75, label %76, label %77

76:                                               ; preds = %64
  store i32 -901, ptr %5, align 4
  store i32 1, ptr %14, align 4
  br label %243

77:                                               ; preds = %64
  %78 = load ptr, ptr %6, align 8, !tbaa !92
  %79 = load ptr, ptr %78, align 8, !tbaa !8
  store ptr %79, ptr %13, align 8, !tbaa !8
  %80 = load ptr, ptr %6, align 8, !tbaa !92
  %81 = load ptr, ptr %80, align 8, !tbaa !8
  %82 = load i64, ptr %8, align 8, !tbaa !18
  %83 = mul i64 40, %82
  %84 = getelementptr inbounds nuw i8, ptr %81, i64 %83
  store ptr %84, ptr %11, align 8, !tbaa !3
  store i64 0, ptr %10, align 8, !tbaa !18
  br label %85

85:                                               ; preds = %239, %77
  %86 = load i64, ptr %10, align 8, !tbaa !18
  %87 = load i64, ptr %8, align 8, !tbaa !18
  %88 = icmp ult i64 %86, %87
  br i1 %88, label %89, label %242

89:                                               ; preds = %85
  %90 = load ptr, ptr %7, align 8, !tbaa !8
  %91 = load i64, ptr %10, align 8, !tbaa !18
  %92 = getelementptr inbounds nuw %struct.nghttp2_nv, ptr %90, i64 %91
  %93 = getelementptr inbounds nuw %struct.nghttp2_nv, ptr %92, i32 0, i32 4
  %94 = load i8, ptr %93, align 8, !tbaa !108
  %95 = load ptr, ptr %13, align 8, !tbaa !8
  %96 = getelementptr inbounds nuw %struct.nghttp2_nv, ptr %95, i32 0, i32 4
  store i8 %94, ptr %96, align 8, !tbaa !108
  %97 = load ptr, ptr %7, align 8, !tbaa !8
  %98 = load i64, ptr %10, align 8, !tbaa !18
  %99 = getelementptr inbounds nuw %struct.nghttp2_nv, ptr %97, i64 %98
  %100 = getelementptr inbounds nuw %struct.nghttp2_nv, ptr %99, i32 0, i32 4
  %101 = load i8, ptr %100, align 8, !tbaa !108
  %102 = zext i8 %101 to i32
  %103 = and i32 %102, 2
  %104 = icmp ne i32 %103, 0
  br i1 %104, label %105, label %120

105:                                              ; preds = %89
  %106 = load ptr, ptr %7, align 8, !tbaa !8
  %107 = load i64, ptr %10, align 8, !tbaa !18
  %108 = getelementptr inbounds nuw %struct.nghttp2_nv, ptr %106, i64 %107
  %109 = getelementptr inbounds nuw %struct.nghttp2_nv, ptr %108, i32 0, i32 0
  %110 = load ptr, ptr %109, align 8, !tbaa !106
  %111 = load ptr, ptr %13, align 8, !tbaa !8
  %112 = getelementptr inbounds nuw %struct.nghttp2_nv, ptr %111, i32 0, i32 0
  store ptr %110, ptr %112, align 8, !tbaa !106
  %113 = load ptr, ptr %7, align 8, !tbaa !8
  %114 = load i64, ptr %10, align 8, !tbaa !18
  %115 = getelementptr inbounds nuw %struct.nghttp2_nv, ptr %113, i64 %114
  %116 = getelementptr inbounds nuw %struct.nghttp2_nv, ptr %115, i32 0, i32 2
  %117 = load i64, ptr %116, align 8, !tbaa !103
  %118 = load ptr, ptr %13, align 8, !tbaa !8
  %119 = getelementptr inbounds nuw %struct.nghttp2_nv, ptr %118, i32 0, i32 2
  store i64 %117, ptr %119, align 8, !tbaa !103
  br label %169

120:                                              ; preds = %89
  %121 = load ptr, ptr %7, align 8, !tbaa !8
  %122 = load i64, ptr %10, align 8, !tbaa !18
  %123 = getelementptr inbounds nuw %struct.nghttp2_nv, ptr %121, i64 %122
  %124 = getelementptr inbounds nuw %struct.nghttp2_nv, ptr %123, i32 0, i32 2
  %125 = load i64, ptr %124, align 8, !tbaa !103
  %126 = icmp ne i64 %125, 0
  br i1 %126, label %127, label %139

127:                                              ; preds = %120
  %128 = load ptr, ptr %11, align 8, !tbaa !3
  %129 = load ptr, ptr %7, align 8, !tbaa !8
  %130 = load i64, ptr %10, align 8, !tbaa !18
  %131 = getelementptr inbounds nuw %struct.nghttp2_nv, ptr %129, i64 %130
  %132 = getelementptr inbounds nuw %struct.nghttp2_nv, ptr %131, i32 0, i32 0
  %133 = load ptr, ptr %132, align 8, !tbaa !106
  %134 = load ptr, ptr %7, align 8, !tbaa !8
  %135 = load i64, ptr %10, align 8, !tbaa !18
  %136 = getelementptr inbounds nuw %struct.nghttp2_nv, ptr %134, i64 %135
  %137 = getelementptr inbounds nuw %struct.nghttp2_nv, ptr %136, i32 0, i32 2
  %138 = load i64, ptr %137, align 8, !tbaa !103
  call void @llvm.memcpy.p0.p0.i64(ptr align 1 %128, ptr align 1 %133, i64 %138, i1 false)
  br label %139

139:                                              ; preds = %127, %120
  %140 = load ptr, ptr %11, align 8, !tbaa !3
  %141 = load ptr, ptr %13, align 8, !tbaa !8
  %142 = getelementptr inbounds nuw %struct.nghttp2_nv, ptr %141, i32 0, i32 0
  store ptr %140, ptr %142, align 8, !tbaa !106
  %143 = load ptr, ptr %7, align 8, !tbaa !8
  %144 = load i64, ptr %10, align 8, !tbaa !18
  %145 = getelementptr inbounds nuw %struct.nghttp2_nv, ptr %143, i64 %144
  %146 = getelementptr inbounds nuw %struct.nghttp2_nv, ptr %145, i32 0, i32 2
  %147 = load i64, ptr %146, align 8, !tbaa !103
  %148 = load ptr, ptr %13, align 8, !tbaa !8
  %149 = getelementptr inbounds nuw %struct.nghttp2_nv, ptr %148, i32 0, i32 2
  store i64 %147, ptr %149, align 8, !tbaa !103
  %150 = load ptr, ptr %11, align 8, !tbaa !3
  %151 = load ptr, ptr %13, align 8, !tbaa !8
  %152 = getelementptr inbounds nuw %struct.nghttp2_nv, ptr %151, i32 0, i32 2
  %153 = load i64, ptr %152, align 8, !tbaa !103
  %154 = getelementptr inbounds nuw i8, ptr %150, i64 %153
  store i8 0, ptr %154, align 1, !tbaa !14
  %155 = load ptr, ptr %13, align 8, !tbaa !8
  %156 = getelementptr inbounds nuw %struct.nghttp2_nv, ptr %155, i32 0, i32 0
  %157 = load ptr, ptr %156, align 8, !tbaa !106
  %158 = load ptr, ptr %13, align 8, !tbaa !8
  %159 = getelementptr inbounds nuw %struct.nghttp2_nv, ptr %158, i32 0, i32 2
  %160 = load i64, ptr %159, align 8, !tbaa !103
  call void @nghttp2_downcase(ptr noundef %157, i64 noundef %160)
  %161 = load ptr, ptr %7, align 8, !tbaa !8
  %162 = load i64, ptr %10, align 8, !tbaa !18
  %163 = getelementptr inbounds nuw %struct.nghttp2_nv, ptr %161, i64 %162
  %164 = getelementptr inbounds nuw %struct.nghttp2_nv, ptr %163, i32 0, i32 2
  %165 = load i64, ptr %164, align 8, !tbaa !103
  %166 = add i64 %165, 1
  %167 = load ptr, ptr %11, align 8, !tbaa !3
  %168 = getelementptr inbounds nuw i8, ptr %167, i64 %166
  store ptr %168, ptr %11, align 8, !tbaa !3
  br label %169

169:                                              ; preds = %139, %105
  %170 = load ptr, ptr %7, align 8, !tbaa !8
  %171 = load i64, ptr %10, align 8, !tbaa !18
  %172 = getelementptr inbounds nuw %struct.nghttp2_nv, ptr %170, i64 %171
  %173 = getelementptr inbounds nuw %struct.nghttp2_nv, ptr %172, i32 0, i32 4
  %174 = load i8, ptr %173, align 8, !tbaa !108
  %175 = zext i8 %174 to i32
  %176 = and i32 %175, 4
  %177 = icmp ne i32 %176, 0
  br i1 %177, label %178, label %193

178:                                              ; preds = %169
  %179 = load ptr, ptr %7, align 8, !tbaa !8
  %180 = load i64, ptr %10, align 8, !tbaa !18
  %181 = getelementptr inbounds nuw %struct.nghttp2_nv, ptr %179, i64 %180
  %182 = getelementptr inbounds nuw %struct.nghttp2_nv, ptr %181, i32 0, i32 1
  %183 = load ptr, ptr %182, align 8, !tbaa !107
  %184 = load ptr, ptr %13, align 8, !tbaa !8
  %185 = getelementptr inbounds nuw %struct.nghttp2_nv, ptr %184, i32 0, i32 1
  store ptr %183, ptr %185, align 8, !tbaa !107
  %186 = load ptr, ptr %7, align 8, !tbaa !8
  %187 = load i64, ptr %10, align 8, !tbaa !18
  %188 = getelementptr inbounds nuw %struct.nghttp2_nv, ptr %186, i64 %187
  %189 = getelementptr inbounds nuw %struct.nghttp2_nv, ptr %188, i32 0, i32 3
  %190 = load i64, ptr %189, align 8, !tbaa !105
  %191 = load ptr, ptr %13, align 8, !tbaa !8
  %192 = getelementptr inbounds nuw %struct.nghttp2_nv, ptr %191, i32 0, i32 3
  store i64 %190, ptr %192, align 8, !tbaa !105
  br label %236

193:                                              ; preds = %169
  %194 = load ptr, ptr %7, align 8, !tbaa !8
  %195 = load i64, ptr %10, align 8, !tbaa !18
  %196 = getelementptr inbounds nuw %struct.nghttp2_nv, ptr %194, i64 %195
  %197 = getelementptr inbounds nuw %struct.nghttp2_nv, ptr %196, i32 0, i32 3
  %198 = load i64, ptr %197, align 8, !tbaa !105
  %199 = icmp ne i64 %198, 0
  br i1 %199, label %200, label %212

200:                                              ; preds = %193
  %201 = load ptr, ptr %11, align 8, !tbaa !3
  %202 = load ptr, ptr %7, align 8, !tbaa !8
  %203 = load i64, ptr %10, align 8, !tbaa !18
  %204 = getelementptr inbounds nuw %struct.nghttp2_nv, ptr %202, i64 %203
  %205 = getelementptr inbounds nuw %struct.nghttp2_nv, ptr %204, i32 0, i32 1
  %206 = load ptr, ptr %205, align 8, !tbaa !107
  %207 = load ptr, ptr %7, align 8, !tbaa !8
  %208 = load i64, ptr %10, align 8, !tbaa !18
  %209 = getelementptr inbounds nuw %struct.nghttp2_nv, ptr %207, i64 %208
  %210 = getelementptr inbounds nuw %struct.nghttp2_nv, ptr %209, i32 0, i32 3
  %211 = load i64, ptr %210, align 8, !tbaa !105
  call void @llvm.memcpy.p0.p0.i64(ptr align 1 %201, ptr align 1 %206, i64 %211, i1 false)
  br label %212

212:                                              ; preds = %200, %193
  %213 = load ptr, ptr %11, align 8, !tbaa !3
  %214 = load ptr, ptr %13, align 8, !tbaa !8
  %215 = getelementptr inbounds nuw %struct.nghttp2_nv, ptr %214, i32 0, i32 1
  store ptr %213, ptr %215, align 8, !tbaa !107
  %216 = load ptr, ptr %7, align 8, !tbaa !8
  %217 = load i64, ptr %10, align 8, !tbaa !18
  %218 = getelementptr inbounds nuw %struct.nghttp2_nv, ptr %216, i64 %217
  %219 = getelementptr inbounds nuw %struct.nghttp2_nv, ptr %218, i32 0, i32 3
  %220 = load i64, ptr %219, align 8, !tbaa !105
  %221 = load ptr, ptr %13, align 8, !tbaa !8
  %222 = getelementptr inbounds nuw %struct.nghttp2_nv, ptr %221, i32 0, i32 3
  store i64 %220, ptr %222, align 8, !tbaa !105
  %223 = load ptr, ptr %11, align 8, !tbaa !3
  %224 = load ptr, ptr %13, align 8, !tbaa !8
  %225 = getelementptr inbounds nuw %struct.nghttp2_nv, ptr %224, i32 0, i32 3
  %226 = load i64, ptr %225, align 8, !tbaa !105
  %227 = getelementptr inbounds nuw i8, ptr %223, i64 %226
  store i8 0, ptr %227, align 1, !tbaa !14
  %228 = load ptr, ptr %7, align 8, !tbaa !8
  %229 = load i64, ptr %10, align 8, !tbaa !18
  %230 = getelementptr inbounds nuw %struct.nghttp2_nv, ptr %228, i64 %229
  %231 = getelementptr inbounds nuw %struct.nghttp2_nv, ptr %230, i32 0, i32 3
  %232 = load i64, ptr %231, align 8, !tbaa !105
  %233 = add i64 %232, 1
  %234 = load ptr, ptr %11, align 8, !tbaa !3
  %235 = getelementptr inbounds nuw i8, ptr %234, i64 %233
  store ptr %235, ptr %11, align 8, !tbaa !3
  br label %236

236:                                              ; preds = %212, %178
  %237 = load ptr, ptr %13, align 8, !tbaa !8
  %238 = getelementptr inbounds nuw %struct.nghttp2_nv, ptr %237, i32 1
  store ptr %238, ptr %13, align 8, !tbaa !8
  br label %239

239:                                              ; preds = %236
  %240 = load i64, ptr %10, align 8, !tbaa !18
  %241 = add i64 %240, 1
  store i64 %241, ptr %10, align 8, !tbaa !18
  br label %85, !llvm.loop !110

242:                                              ; preds = %85
  store i32 0, ptr %5, align 4
  store i32 1, ptr %14, align 4
  br label %243

243:                                              ; preds = %242, %76, %17
  call void @llvm.lifetime.end.p0(i64 8, ptr %13) #7
  call void @llvm.lifetime.end.p0(i64 8, ptr %12) #7
  call void @llvm.lifetime.end.p0(i64 8, ptr %11) #7
  call void @llvm.lifetime.end.p0(i64 8, ptr %10) #7
  %244 = load i32, ptr %5, align 4
  ret i32 %244
}