; Function Attrs: nounwind uwtable
define hidden range(i32 -901, 1) i32 @nghttp2_nv_array_copy(ptr noundef writeonly captures(none) %0, ptr noundef readonly captures(none) %1, i64 noundef %2, ptr noundef %3) local_unnamed_addr #0 {
  %5 = icmp eq i64 %2, 0
  br i1 %5, label %6, label %.preheader

6:                                                ; preds = %4
  store ptr null, ptr %0, align 8, !tbaa !86
  br label %.loopexit

.preheader:                                       ; preds = %4, %25
  %.08398 = phi i64 [ %.2, %25 ], [ 0, %4 ]
  %.08797 = phi i64 [ %26, %25 ], [ 0, %4 ]
  %7 = getelementptr inbounds nuw %struct.nghttp2_nv, ptr %1, i64 %.08797
  %8 = getelementptr inbounds nuw i8, ptr %7, i64 32
  %9 = load i8, ptr %8, align 8, !tbaa !99
  %10 = and i8 %9, 2
  %11 = icmp eq i8 %10, 0
  br i1 %11, label %12, label %17

12:                                               ; preds = %.preheader
  %13 = getelementptr inbounds nuw i8, ptr %7, i64 16
  %14 = load i64, ptr %13, align 8, !tbaa !94
  %15 = add i64 %.08398, 1
  %16 = add i64 %15, %14
  br label %17

17:                                               ; preds = %12, %.preheader
  %.1 = phi i64 [ %16, %12 ], [ %.08398, %.preheader ]
  %18 = and i8 %9, 4
  %19 = icmp eq i8 %18, 0
  br i1 %19, label %20, label %25

20:                                               ; preds = %17
  %21 = getelementptr inbounds nuw i8, ptr %7, i64 24
  %22 = load i64, ptr %21, align 8, !tbaa !96
  %23 = add i64 %.1, 1
  %24 = add i64 %23, %22
  br label %25

25:                                               ; preds = %17, %20
  %.2 = phi i64 [ %24, %20 ], [ %.1, %17 ]
  %26 = add nuw i64 %.08797, 1
  %exitcond.not = icmp eq i64 %26, %2
  br i1 %exitcond.not, label %27, label %.preheader, !llvm.loop !100

27:                                               ; preds = %25
  %28 = mul i64 %2, 40
  %29 = add i64 %.2, %28
  %30 = tail call ptr @nghttp2_mem_malloc(ptr noundef %3, i64 noundef %29) #18
  store ptr %30, ptr %0, align 8, !tbaa !86
  %31 = icmp eq ptr %30, null
  br i1 %31, label %.loopexit, label %32

32:                                               ; preds = %27
  %33 = getelementptr inbounds nuw i8, ptr %30, i64 %28
  br label %34

34:                                               ; preds = %32, %83
  %.0101 = phi ptr [ %30, %32 ], [ %84, %83 ]
  %.084100 = phi ptr [ %33, %32 ], [ %.286, %83 ]
  %.18899 = phi i64 [ 0, %32 ], [ %85, %83 ]
  %35 = getelementptr inbounds nuw %struct.nghttp2_nv, ptr %1, i64 %.18899
  %36 = getelementptr inbounds nuw i8, ptr %35, i64 32
  %37 = load i8, ptr %36, align 8, !tbaa !99
  %38 = getelementptr inbounds nuw i8, ptr %.0101, i64 32
  store i8 %37, ptr %38, align 8, !tbaa !99
  %39 = and i8 %37, 2
  %.not = icmp eq i8 %39, 0
  br i1 %.not, label %45, label %40

40:                                               ; preds = %34
  %41 = load ptr, ptr %35, align 8, !tbaa !97
  store ptr %41, ptr %.0101, align 8, !tbaa !97
  %42 = getelementptr inbounds nuw i8, ptr %35, i64 16
  %43 = load i64, ptr %42, align 8, !tbaa !94
  %44 = getelementptr inbounds nuw i8, ptr %.0101, i64 16
  store i64 %43, ptr %44, align 8, !tbaa !94
  br label %59

45:                                               ; preds = %34
  %46 = getelementptr inbounds nuw i8, ptr %35, i64 16
  %47 = load i64, ptr %46, align 8, !tbaa !94
  %.not94 = icmp eq i64 %47, 0
  br i1 %.not94, label %50, label %48

48:                                               ; preds = %45
  %49 = load ptr, ptr %35, align 8, !tbaa !97
  tail call void @llvm.memcpy.p0.p0.i64(ptr align 1 %.084100, ptr align 1 %49, i64 %47, i1 false)
  %.pre = load i64, ptr %46, align 8, !tbaa !94
  br label %50

50:                                               ; preds = %48, %45
  %51 = phi i64 [ %.pre, %48 ], [ 0, %45 ]
  store ptr %.084100, ptr %.0101, align 8, !tbaa !97
  %52 = getelementptr inbounds nuw i8, ptr %.0101, i64 16
  store i64 %51, ptr %52, align 8, !tbaa !94
  %53 = getelementptr inbounds nuw i8, ptr %.084100, i64 %51
  store i8 0, ptr %53, align 1, !tbaa !10
  %54 = load ptr, ptr %.0101, align 8, !tbaa !97
  %55 = load i64, ptr %52, align 8, !tbaa !94
  tail call void @nghttp2_downcase(ptr noundef %54, i64 noundef %55) #18
  %56 = load i64, ptr %46, align 8, !tbaa !94
  %57 = getelementptr i8, ptr %.084100, i64 %56
  %58 = getelementptr i8, ptr %57, i64 1
  %.pre103 = load i8, ptr %36, align 8, !tbaa !99
  br label %59

59:                                               ; preds = %50, %40
  %60 = phi i8 [ %37, %40 ], [ %.pre103, %50 ]
  %.185 = phi ptr [ %.084100, %40 ], [ %58, %50 ]
  %61 = and i8 %60, 4
  %.not95 = icmp eq i8 %61, 0
  br i1 %.not95, label %69, label %62

62:                                               ; preds = %59
  %63 = getelementptr inbounds nuw i8, ptr %35, i64 8
  %64 = load ptr, ptr %63, align 8, !tbaa !98
  %65 = getelementptr inbounds nuw i8, ptr %.0101, i64 8
  store ptr %64, ptr %65, align 8, !tbaa !98
  %66 = getelementptr inbounds nuw i8, ptr %35, i64 24
  %67 = load i64, ptr %66, align 8, !tbaa !96
  %68 = getelementptr inbounds nuw i8, ptr %.0101, i64 24
  store i64 %67, ptr %68, align 8, !tbaa !96
  br label %83

69:                                               ; preds = %59
  %70 = getelementptr inbounds nuw i8, ptr %35, i64 24
  %71 = load i64, ptr %70, align 8, !tbaa !96
  %.not96 = icmp eq i64 %71, 0
  br i1 %.not96, label %75, label %72

72:                                               ; preds = %69
  %73 = getelementptr inbounds nuw i8, ptr %35, i64 8
  %74 = load ptr, ptr %73, align 8, !tbaa !98
  tail call void @llvm.memcpy.p0.p0.i64(ptr align 1 %.185, ptr align 1 %74, i64 %71, i1 false)
  %.pre104 = load i64, ptr %70, align 8, !tbaa !96
  br label %75

75:                                               ; preds = %72, %69
  %76 = phi i64 [ %.pre104, %72 ], [ 0, %69 ]
  %77 = getelementptr inbounds nuw i8, ptr %.0101, i64 8
  store ptr %.185, ptr %77, align 8, !tbaa !98
  %78 = getelementptr inbounds nuw i8, ptr %.0101, i64 24
  store i64 %76, ptr %78, align 8, !tbaa !96
  %79 = getelementptr inbounds nuw i8, ptr %.185, i64 %76
  store i8 0, ptr %79, align 1, !tbaa !10
  %80 = load i64, ptr %70, align 8, !tbaa !96
  %81 = getelementptr i8, ptr %.185, i64 %80
  %82 = getelementptr i8, ptr %81, i64 1
  br label %83

83:                                               ; preds = %75, %62
  %.286 = phi ptr [ %.185, %62 ], [ %82, %75 ]
  %84 = getelementptr inbounds nuw i8, ptr %.0101, i64 40
  %85 = add nuw i64 %.18899, 1
  %exitcond102.not = icmp eq i64 %85, %2
  br i1 %exitcond102.not, label %.loopexit, label %34, !llvm.loop !101

.loopexit:                                        ; preds = %83, %27, %6
  %.089 = phi i32 [ 0, %6 ], [ -901, %27 ], [ 0, %83 ]
  ret i32 %.089
}